target datalayout = "e-m:e-p270:32:32-p271:32:32-p272:64:64-i64:64-i128:128-f80:128-n8:16:32:64-S128"
target triple = "x86_64-pc-linux-gnu"

%struct._packet_info = type { ptr, ptr, i32, i32, %struct.nstime_t, %struct.nstime_t, %struct.nstime_t, i8, ptr, ptr, ptr, ptr, %struct._address, %struct._address, %struct._address, %struct._address, %struct._address, %struct._address, i32, ptr, i8, [3 x i8], %struct.anon, i32, i32, i32, i32, ptr, i8, ptr, ptr, i16, i16, i32, i32, i16, i32, i32, ptr, ptr, ptr, i8, i8, i16, i16, i16, i32, i16, i16, ptr, ptr, ptr, ptr, ptr, i32, i32 }
%struct.nstime_t = type { i64, i32 }
%struct._address = type { i32, i32, ptr, ptr }
%struct.anon = type { i8, [3 x i8] }
%struct._smpp_data_t = type { i8, i32, ptr }

@hf_smpp_service_type = internal global i32 0, align 4
@hf_smpp_source_addr_ton = internal global i32 0, align 4
@hf_smpp_source_addr_npi = internal global i32 0, align 4
@hf_smpp_source_addr = internal global i32 0, align 4
@hf_smpp_priority_flag = internal global i32 0, align 4
@hf_smpp_schedule_delivery_time = internal global i32 0, align 4
@hf_smpp_schedule_delivery_time_r = internal global i32 0, align 4
@hf_smpp_validity_period = internal global i32 0, align 4
@hf_smpp_validity_period_r = internal global i32 0, align 4
@hf_smpp_replace_if_present_flag = internal global i32 0, align 4
@hf_smpp_sm_default_msg_id = internal global i32 0, align 4
@hf_smpp_message_id = internal global i32 0, align 4
@proto_smpp = internal global i32 0, align 4
@.str.967 = private unnamed_addr constant [10 x i8] c"(Default)\00", align 1
@.str.968 = private unnamed_addr constant [19 x i8] c"Immediate delivery\00", align 1
@.str.969 = private unnamed_addr constant [29 x i8] c"SMSC default validity period\00", align 1
@.str.972 = private unnamed_addr constant [1 x i8] zeroinitializer, align 1

; Function Attrs: null_pointer_is_valid sspstrong uwtable
define internal void @smpp_handle_string(ptr noundef %0, ptr noundef %1, i32 noundef %2, ptr noundef %3) #0 {
  %5 = alloca ptr, align 8
  %6 = alloca ptr, align 8
  %7 = alloca i32, align 4
  %8 = alloca ptr, align 8
  %9 = alloca i32, align 4
  store ptr %0, ptr %5, align 8
  store ptr %1, ptr %6, align 8
  store i32 %2, ptr %7, align 4
  store ptr %3, ptr %8, align 8
  call void @llvm.lifetime.start.p0(i64 4, ptr %9) #10
  %10 = load ptr, ptr %6, align 8
  %11 = load ptr, ptr %8, align 8
  %12 = load i32, ptr %11, align 4
  %13 = call i32 @tvb_strsize(ptr noundef %10, i32 noundef %12)
  store i32 %13, ptr %9, align 4
  %14 = load i32, ptr %9, align 4
  %15 = icmp ugt i32 %14, 1
  br i1 %15, label %16, label %24

16:                                               ; preds = %4
  %17 = load ptr, ptr %5, align 8
  %18 = load i32, ptr %7, align 4
  %19 = load ptr, ptr %6, align 8
  %20 = load ptr, ptr %8, align 8
  %21 = load i32, ptr %20, align 4
  %22 = load i32, ptr %9, align 4
  %23 = call ptr @proto_tree_add_item(ptr noundef %17, i32 noundef %18, ptr noundef %19, i32 noundef %21, i32 noundef %22, i32 noundef 0)
  br label %24

24:                                               ; preds = %16, %4
  %25 = load i32, ptr %9, align 4
  %26 = load ptr, ptr %8, align 8
  %27 = load i32, ptr %26, align 4
  %28 = add i32 %27, %25
  store i32 %28, ptr %26, align 4
  call void @llvm.lifetime.end.p0(i64 4, ptr %9) #10
  ret void
}

; Function Attrs: null_pointer_is_valid sspstrong uwtable
define internal ptr @smpp_handle_string_return(ptr noundef %0, ptr noundef %1, ptr noundef %2, i32 noundef %3, ptr noundef %4) #0 {
  %6 = alloca ptr, align 8
  %7 = alloca ptr, align 8
  %8 = alloca ptr, align 8
  %9 = alloca i32, align 4
  %10 = alloca ptr, align 8
  %11 = alloca i32, align 4
  %12 = alloca ptr, align 8
  store ptr %0, ptr %6, align 8
  store ptr %1, ptr %7, align 8
  store ptr %2, ptr %8, align 8
  store i32 %3, ptr %9, align 4
  store ptr %4, ptr %10, align 8
  call void @llvm.lifetime.start.p0(i64 4, ptr %11) #10
  call void @llvm.lifetime.start.p0(i64 8, ptr %12) #10
  %13 = load ptr, ptr %8, align 8
  %14 = getelementptr inbounds nuw %struct._packet_info, ptr %13, i32 0, i32 51
  %15 = load ptr, ptr %14, align 8
  %16 = load ptr, ptr %7, align 8
  %17 = load ptr, ptr %10, align 8
  %18 = load i32, ptr %17, align 4
  %19 = call ptr @tvb_get_stringz_enc(ptr noundef %15, ptr noundef %16, i32 noundef %18, ptr noundef %11, i32 noundef 0)
  store ptr %19, ptr %12, align 8
  %20 = load i32, ptr %11, align 4
  %21 = icmp sgt i32 %20, 0
  br i1 %21, label %22, label %31

22:                                               ; preds = %5
  %23 = load ptr, ptr %6, align 8
  %24 = load i32, ptr %9, align 4
  %25 = load ptr, ptr %7, align 8
  %26 = load ptr, ptr %10, align 8
  %27 = load i32, ptr %26, align 4
  %28 = load i32, ptr %11, align 4
  %29 = load ptr, ptr %12, align 8
  %30 = call ptr @proto_tree_add_string(ptr noundef %23, i32 noundef %24, ptr noundef %25, i32 noundef %27, i32 noundef %28, ptr noundef %29)
  br label %31

31:                                               ; preds = %22, %5
  %32 = load i32, ptr %11, align 4
  %33 = load ptr, ptr %10, align 8
  %34 = load i32, ptr %33, align 4
  %35 = add i32 %34, %32
  store i32 %35, ptr %33, align 4
  %36 = load ptr, ptr %12, align 8
  call void @llvm.lifetime.end.p0(i64 8, ptr %12) #10
  call void @llvm.lifetime.end.p0(i64 4, ptr %11) #10
  ret ptr %36
}

; Function Attrs: null_pointer_is_valid sspstrong uwtable
define internal void @smpp_handle_string_z(ptr noundef %0, ptr noundef %1, i32 noundef %2, ptr noundef %3, ptr noundef %4) #0 {
  %6 = alloca ptr, align 8
  %7 = alloca ptr, align 8
  %8 = alloca i32, align 4
  %9 = alloca ptr, align 8
  %10 = alloca ptr, align 8
  %11 = alloca i32, align 4
  store ptr %0, ptr %6, align 8
  store ptr %1, ptr %7, align 8
  store i32 %2, ptr %8, align 4
  store ptr %3, ptr %9, align 8
  store ptr %4, ptr %10, align 8
  call void @llvm.lifetime.start.p0(i64 4, ptr %11) #10
  %12 = load ptr, ptr %7, align 8
  %13 = load ptr, ptr %9, align 8
  %14 = load i32, ptr %13, align 4
  %15 = call i32 @tvb_strsize(ptr noundef %12, i32 noundef %14)
  store i32 %15, ptr %11, align 4
  %16 = load i32, ptr %11, align 4
  %17 = icmp sgt i32 %16, 1
  br i1 %17, label %18, label %26

18:                                               ; preds = %5
  %19 = load ptr, ptr %6, align 8
  %20 = load i32, ptr %8, align 4
  %21 = load ptr, ptr %7, align 8
  %22 = load ptr, ptr %9, align 8
  %23 = load i32, ptr %22, align 4
  %24 = load i32, ptr %11, align 4
  %25 = call ptr @proto_tree_add_item(ptr noundef %19, i32 noundef %20, ptr noundef %21, i32 noundef %23, i32 noundef %24, i32 noundef 0)
  br label %35

26:                                               ; preds = %5
  %27 = load ptr, ptr %6, align 8
  %28 = load i32, ptr %8, align 4
  %29 = load ptr, ptr %7, align 8
  %30 = load ptr, ptr %9, align 8
  %31 = load i32, ptr %30, align 4
  %32 = load i32, ptr %11, align 4
  %33 = load ptr, ptr %10, align 8
  %34 = call ptr @proto_tree_add_string(ptr noundef %27, i32 noundef %28, ptr noundef %29, i32 noundef %31, i32 noundef %32, ptr noundef %33)
  br label %35

35:                                               ; preds = %26, %18
  %36 = load i32, ptr %11, align 4
  %37 = load ptr, ptr %9, align 8
  %38 = load i32, ptr %37, align 4
  %39 = add i32 %38, %36
  store i32 %39, ptr %37, align 4
  call void @llvm.lifetime.end.p0(i64 4, ptr %11) #10
  ret void
}

; Function Attrs: null_pointer_is_valid sspstrong uwtable
define internal ptr @get_smpp_data(ptr noundef %0) #0 {
  %2 = alloca ptr, align 8
  %3 = alloca ptr, align 8
  store ptr %0, ptr %2, align 8
  call void @llvm.lifetime.start.p0(i64 8, ptr %3) #10
  store ptr null, ptr %3, align 8
  %4 = load ptr, ptr %2, align 8
  %5 = getelementptr inbounds nuw %struct._packet_info, ptr %4, i32 0, i32 51
  %6 = load ptr, ptr %5, align 8
  %7 = load ptr, ptr %2, align 8
  %8 = load i32, ptr @proto_smpp, align 4
  %9 = call ptr @p_get_proto_data(ptr noundef %6, ptr noundef %7, i32 noundef %8, i32 noundef 0)
  store ptr %9, ptr %3, align 8
  %10 = load ptr, ptr %3, align 8
  %11 = icmp ne ptr %10, null
  br i1 %11, label %23, label %12

12:                                               ; preds = %1
  %13 = load ptr, ptr %2, align 8
  %14 = getelementptr inbounds nuw %struct._packet_info, ptr %13, i32 0, i32 51
  %15 = load ptr, ptr %14, align 8
  %16 = call noalias ptr @wmem_alloc0(ptr noundef %15, i64 noundef 16) #12
  store ptr %16, ptr %3, align 8
  %17 = load ptr, ptr %2, align 8
  %18 = getelementptr inbounds nuw %struct._packet_info, ptr %17, i32 0, i32 51
  %19 = load ptr, ptr %18, align 8
  %20 = load ptr, ptr %2, align 8
  %21 = load i32, ptr @proto_smpp, align 4
  %22 = load ptr, ptr %3, align 8
  call void @p_add_proto_data(ptr noundef %19, ptr noundef %20, i32 noundef %21, i32 noundef 0, ptr noundef %22)
  br label %23

23:                                               ; preds = %12, %1
  %24 = load ptr, ptr %3, align 8
  call void @llvm.lifetime.end.p0(i64 8, ptr %3) #10
  ret ptr %24
}

; Function Attrs: null_pointer_is_valid sspstrong uwtable
define internal void @broadcast_sm(ptr noundef %0, ptr noundef %1, ptr noundef %2, i32 noundef %3) #0 {
  %5 = alloca ptr, align 8
  %6 = alloca ptr, align 8
  %7 = alloca ptr, align 8
  %8 = alloca i32, align 4
  %9 = alloca %struct.nstime_t, align 8
  %10 = alloca ptr, align 8
  %11 = alloca ptr, align 8
  %12 = alloca ptr, align 8
  store ptr %0, ptr %5, align 8
  store ptr %1, ptr %6, align 8
  store ptr %2, ptr %7, align 8
  store i32 %3, ptr %8, align 4
  call void @llvm.lifetime.start.p0(i64 16, ptr %9) #10
  call void @llvm.memset.p0.i64(ptr align 8 %9, i8 0, i64 16, i1 false)
  call void @llvm.lifetime.start.p0(i64 8, ptr %10) #10
  store ptr null, ptr %10, align 8
  call void @llvm.lifetime.start.p0(i64 8, ptr %11) #10
  call void @llvm.lifetime.start.p0(i64 8, ptr %12) #10
  store ptr null, ptr %12, align 8
  %13 = load ptr, ptr %7, align 8
  %14 = call ptr @get_smpp_data(ptr noundef %13)
  store ptr %14, ptr %11, align 8
  %15 = load ptr, ptr %5, align 8
  %16 = load ptr, ptr %6, align 8
  %17 = load i32, ptr @hf_smpp_service_type, align 4
  call void @smpp_handle_string_z(ptr noundef %15, ptr noundef %16, i32 noundef %17, ptr noundef %8, ptr noundef @.str.967)
  %18 = load ptr, ptr %5, align 8
  %19 = load i32, ptr @hf_smpp_source_addr_ton, align 4
  %20 = load ptr, ptr %6, align 8
  %21 = load i32, ptr %8, align 4
  %22 = call ptr @proto_tree_add_item(ptr noundef %18, i32 noundef %19, ptr noundef %20, i32 noundef %21, i32 noundef 1, i32 noundef 0)
  %23 = load i32, ptr %8, align 4
  %24 = add i32 %23, 1
  store i32 %24, ptr %8, align 4
  %25 = load ptr, ptr %5, align 8
  %26 = load i32, ptr @hf_smpp_source_addr_npi, align 4
  %27 = load ptr, ptr %6, align 8
  %28 = load i32, ptr %8, align 4
  %29 = call ptr @proto_tree_add_item(ptr noundef %25, i32 noundef %26, ptr noundef %27, i32 noundef %28, i32 noundef 1, i32 noundef 0)
  %30 = load i32, ptr %8, align 4
  %31 = add i32 %30, 1
  store i32 %31, ptr %8, align 4
  %32 = load ptr, ptr %5, align 8
  %33 = load ptr, ptr %6, align 8
  %34 = load ptr, ptr %7, align 8
  %35 = load i32, ptr @hf_smpp_source_addr, align 4
  %36 = call ptr @smpp_handle_string_return(ptr noundef %32, ptr noundef %33, ptr noundef %34, i32 noundef %35, ptr noundef %8)
  store ptr %36, ptr %12, align 8
  %37 = load ptr, ptr %5, align 8
  %38 = load ptr, ptr %6, align 8
  %39 = load i32, ptr @hf_smpp_message_id, align 4
  call void @smpp_handle_string(ptr noundef %37, ptr noundef %38, i32 noundef %39, ptr noundef %8)
  %40 = load ptr, ptr %5, align 8
  %41 = load i32, ptr @hf_smpp_priority_flag, align 4
  %42 = load ptr, ptr %6, align 8
  %43 = load i32, ptr %8, align 4
  %44 = call ptr @proto_tree_add_item(ptr noundef %40, i32 noundef %41, ptr noundef %42, i32 noundef %43, i32 noundef 1, i32 noundef 0)
  %45 = load i32, ptr %8, align 4
  %46 = add i32 %45, 1
  store i32 %46, ptr %8, align 4
  %47 = load ptr, ptr %6, align 8
  %48 = load i32, ptr %8, align 4
  %49 = call zeroext i8 @tvb_get_uint8(ptr noundef %47, i32 noundef %48)
  %50 = icmp ne i8 %49, 0
  br i1 %50, label %51, label %57

51:                                               ; preds = %4
  %52 = load ptr, ptr %5, align 8
  %53 = load ptr, ptr %6, align 8
  %54 = load ptr, ptr %7, align 8
  %55 = load i32, ptr @hf_smpp_schedule_delivery_time, align 4
  %56 = load i32, ptr @hf_smpp_schedule_delivery_time_r, align 4
  call void @smpp_handle_time(ptr noundef %52, ptr noundef %53, ptr noundef %54, i32 noundef %55, i32 noundef %56, ptr noundef %8)
  br label %64

57:                                               ; preds = %4
  %58 = load ptr, ptr %5, align 8
  %59 = load i32, ptr @hf_smpp_schedule_delivery_time_r, align 4
  %60 = load ptr, ptr %6, align 8
  %61 = load i32, ptr %8, align 4
  %62 = add i32 %61, 1
  store i32 %62, ptr %8, align 4
  %63 = call ptr (ptr, i32, ptr, i32, i32, ptr, ptr, ...) @proto_tree_add_time_format_value(ptr noundef %58, i32 noundef %59, ptr noundef %60, i32 noundef %61, i32 noundef 1, ptr noundef %9, ptr noundef @.str.968)
  br label %64

64:                                               ; preds = %57, %51
  %65 = load ptr, ptr %6, align 8
  %66 = load i32, ptr %8, align 4
  %67 = call zeroext i8 @tvb_get_uint8(ptr noundef %65, i32 noundef %66)
  %68 = icmp ne i8 %67, 0
  br i1 %68, label %69, label %75

69:                                               ; preds = %64
  %70 = load ptr, ptr %5, align 8
  %71 = load ptr, ptr %6, align 8
  %72 = load ptr, ptr %7, align 8
  %73 = load i32, ptr @hf_smpp_validity_period, align 4
  %74 = load i32, ptr @hf_smpp_validity_period_r, align 4
  call void @smpp_handle_time(ptr noundef %70, ptr noundef %71, ptr noundef %72, i32 noundef %73, i32 noundef %74, ptr noundef %8)
  br label %82

75:                                               ; preds = %64
  %76 = load ptr, ptr %5, align 8
  %77 = load i32, ptr @hf_smpp_validity_period_r, align 4
  %78 = load ptr, ptr %6, align 8
  %79 = load i32, ptr %8, align 4
  %80 = add i32 %79, 1
  store i32 %80, ptr %8, align 4
  %81 = call ptr (ptr, i32, ptr, i32, i32, ptr, ptr, ...) @proto_tree_add_time_format_value(ptr noundef %76, i32 noundef %77, ptr noundef %78, i32 noundef %79, i32 noundef 1, ptr noundef %9, ptr noundef @.str.969)
  br label %82

82:                                               ; preds = %75, %69
  %83 = load ptr, ptr %5, align 8
  %84 = load i32, ptr @hf_smpp_replace_if_present_flag, align 4
  %85 = load ptr, ptr %6, align 8
  %86 = load i32, ptr %8, align 4
  %87 = call ptr @proto_tree_add_item(ptr noundef %83, i32 noundef %84, ptr noundef %85, i32 noundef %86, i32 noundef 1, i32 noundef 0)
  %88 = load i32, ptr %8, align 4
  %89 = add i32 %88, 1
  store i32 %89, ptr %8, align 4
  %90 = load ptr, ptr %5, align 8
  %91 = load ptr, ptr %6, align 8
  %92 = load ptr, ptr %11, align 8
  %93 = getelementptr inbounds nuw %struct._smpp_data_t, ptr %92, i32 0, i32 1
  call void @smpp_handle_dcs(ptr noundef %90, ptr noundef %91, ptr noundef %8, ptr noundef %93)
  %94 = load ptr, ptr %5, align 8
  %95 = load i32, ptr @hf_smpp_sm_default_msg_id, align 4
  %96 = load ptr, ptr %6, align 8
  %97 = load i32, ptr %8, align 4
  %98 = call ptr @proto_tree_add_item(ptr noundef %94, i32 noundef %95, ptr noundef %96, i32 noundef %97, i32 noundef 1, i32 noundef 0)
  %99 = load i32, ptr %8, align 4
  %100 = add i32 %99, 1
  store i32 %100, ptr %8, align 4
  %101 = load ptr, ptr %5, align 8
  %102 = load ptr, ptr %6, align 8
  %103 = load ptr, ptr %7, align 8
  call void @smpp_handle_tlv(ptr noundef %101, ptr noundef %102, ptr noundef %103, ptr noundef %8, ptr noundef %10)
  %104 = load ptr, ptr %10, align 8
  %105 = icmp ne ptr %104, null
  br i1 %105, label %106, label %111

106:                                              ; preds = %82
  %107 = load ptr, ptr %5, align 8
  %108 = load ptr, ptr %10, align 8
  %109 = load ptr, ptr %7, align 8
  %110 = load ptr, ptr %12, align 8
  call void @smpp_handle_msg(ptr noundef %107, ptr noundef %108, ptr noundef %109, ptr noundef %110, ptr noundef @.str.972)
  br label %111

111:                                              ; preds = %106, %82
  call void @llvm.lifetime.end.p0(i64 8, ptr %12) #10
  call void @llvm.lifetime.end.p0(i64 8, ptr %11) #10
  call void @llvm.lifetime.end.p0(i64 8, ptr %10) #10
  call void @llvm.lifetime.end.p0(i64 16, ptr %9) #10
  ret void
}