; Function Attrs: null_pointer_is_valid sspstrong uwtable
define internal fastcc void @broadcast_sm(ptr noundef %0, ptr noundef %1, ptr noundef %2) unnamed_addr #0 {
  %4 = alloca i32, align 4
  %5 = alloca i32, align 4
  %6 = alloca %struct.nstime_t, align 8
  %7 = alloca ptr, align 8
  store i32 16, ptr %5, align 4
  call void @llvm.lifetime.start.p0(i64 16, ptr nonnull %6) #10
  call void @llvm.memset.p0.i64(ptr noundef nonnull align 8 dereferenceable(16) %6, i8 0, i64 16, i1 false)
  call void @llvm.lifetime.start.p0(i64 8, ptr nonnull %7) #10
  store ptr null, ptr %7, align 8
  %8 = getelementptr inbounds nuw i8, ptr %2, i64 408
  %9 = load ptr, ptr %8, align 8
  %10 = load i32, ptr @proto_smpp, align 4
  %11 = tail call ptr @p_get_proto_data(ptr noundef %9, ptr noundef %2, i32 noundef %10, i32 noundef 0)
  %.not.i = icmp eq ptr %11, null
  br i1 %.not.i, label %12, label %get_smpp_data.exit

12:                                               ; preds = %3
  %13 = load ptr, ptr %8, align 8
  %14 = tail call noalias dereferenceable_or_null(16) ptr @wmem_alloc0(ptr noundef %13, i64 noundef 16) #12
  %15 = load ptr, ptr %8, align 8
  %16 = load i32, ptr @proto_smpp, align 4
  tail call void @p_add_proto_data(ptr noundef %15, ptr noundef %2, i32 noundef %16, i32 noundef 0, ptr noundef %14)
  br label %get_smpp_data.exit

get_smpp_data.exit:                               ; preds = %3, %12
  %.0.i = phi ptr [ %11, %3 ], [ %14, %12 ]
  %17 = load i32, ptr @hf_smpp_service_type, align 4
  %18 = tail call i32 @tvb_strsize(ptr noundef %1, i32 noundef 16)
  %19 = icmp sgt i32 %18, 1
  br i1 %19, label %20, label %22

20:                                               ; preds = %get_smpp_data.exit
  %21 = tail call ptr @proto_tree_add_item(ptr noundef %0, i32 noundef %17, ptr noundef %1, i32 noundef 16, i32 noundef %18, i32 noundef 0)
  br label %smpp_handle_string_z.exit

22:                                               ; preds = %get_smpp_data.exit
  %23 = tail call ptr @proto_tree_add_string(ptr noundef %0, i32 noundef %17, ptr noundef %1, i32 noundef 16, i32 noundef %18, ptr noundef nonnull @.str.967)
  br label %smpp_handle_string_z.exit

smpp_handle_string_z.exit:                        ; preds = %20, %22
  %24 = add i32 %18, 16
  %25 = load i32, ptr @hf_smpp_source_addr_ton, align 4
  %26 = tail call ptr @proto_tree_add_item(ptr noundef %0, i32 noundef %25, ptr noundef %1, i32 noundef %24, i32 noundef 1, i32 noundef 0)
  %27 = add i32 %18, 17
  %28 = load i32, ptr @hf_smpp_source_addr_npi, align 4
  %29 = tail call ptr @proto_tree_add_item(ptr noundef %0, i32 noundef %28, ptr noundef %1, i32 noundef %27, i32 noundef 1, i32 noundef 0)
  %30 = add i32 %18, 18
  %31 = load i32, ptr @hf_smpp_source_addr, align 4
  %.val42 = load ptr, ptr %8, align 8
  call void @llvm.lifetime.start.p0(i64 4, ptr nonnull %4) #10
  %32 = call ptr @tvb_get_stringz_enc(ptr noundef %.val42, ptr noundef %1, i32 noundef %30, ptr noundef nonnull %4, i32 noundef 0)
  %33 = load i32, ptr %4, align 4
  %34 = icmp sgt i32 %33, 0
  br i1 %34, label %35, label %smpp_handle_string_return.exit

35:                                               ; preds = %smpp_handle_string_z.exit
  %36 = call ptr @proto_tree_add_string(ptr noundef %0, i32 noundef %31, ptr noundef %1, i32 noundef %30, i32 noundef %33, ptr noundef %32)
  %.pre.i = load i32, ptr %4, align 4
  br label %smpp_handle_string_return.exit

smpp_handle_string_return.exit:                   ; preds = %smpp_handle_string_z.exit, %35
  %37 = phi i32 [ %.pre.i, %35 ], [ %33, %smpp_handle_string_z.exit ]
  %38 = add i32 %30, %37
  call void @llvm.lifetime.end.p0(i64 4, ptr nonnull %4) #10
  %39 = load i32, ptr @hf_smpp_message_id, align 4
  %40 = call i32 @tvb_strsize(ptr noundef %1, i32 noundef %38)
  %41 = icmp ugt i32 %40, 1
  br i1 %41, label %42, label %smpp_handle_string.exit

42:                                               ; preds = %smpp_handle_string_return.exit
  %43 = call ptr @proto_tree_add_item(ptr noundef %0, i32 noundef %39, ptr noundef %1, i32 noundef %38, i32 noundef %40, i32 noundef 0)
  br label %smpp_handle_string.exit

smpp_handle_string.exit:                          ; preds = %smpp_handle_string_return.exit, %42
  %44 = add i32 %38, %40
  %45 = load i32, ptr @hf_smpp_priority_flag, align 4
  %46 = call ptr @proto_tree_add_item(ptr noundef %0, i32 noundef %45, ptr noundef %1, i32 noundef %44, i32 noundef 1, i32 noundef 0)
  %47 = add i32 %44, 1
  store i32 %47, ptr %5, align 4
  %48 = call zeroext i8 @tvb_get_uint8(ptr noundef %1, i32 noundef %47)
  %.not = icmp eq i8 %48, 0
  br i1 %.not, label %52, label %49

49:                                               ; preds = %smpp_handle_string.exit
  %50 = load i32, ptr @hf_smpp_schedule_delivery_time, align 4
  %51 = load i32, ptr @hf_smpp_schedule_delivery_time_r, align 4
  %.val = load ptr, ptr %8, align 8
  call fastcc void @smpp_handle_time(ptr noundef %0, ptr noundef %1, ptr %.val, i32 noundef %50, i32 noundef %51, ptr noundef nonnull %5)
  %.pre = load i32, ptr %5, align 4
  br label %56

52:                                               ; preds = %smpp_handle_string.exit
  %53 = load i32, ptr @hf_smpp_schedule_delivery_time_r, align 4
  %54 = add i32 %44, 2
  store i32 %54, ptr %5, align 4
  %55 = call ptr (ptr, i32, ptr, i32, i32, ptr, ptr, ...) @proto_tree_add_time_format_value(ptr noundef %0, i32 noundef %53, ptr noundef %1, i32 noundef %47, i32 noundef 1, ptr noundef nonnull %6, ptr noundef nonnull @.str.968)
  br label %56

56:                                               ; preds = %52, %49
  %57 = phi i32 [ %54, %52 ], [ %.pre, %49 ]
  %58 = call zeroext i8 @tvb_get_uint8(ptr noundef %1, i32 noundef %57)
  %.not39 = icmp eq i8 %58, 0
  br i1 %.not39, label %62, label %59

59:                                               ; preds = %56
  %60 = load i32, ptr @hf_smpp_validity_period, align 4
  %61 = load i32, ptr @hf_smpp_validity_period_r, align 4
  %.val41 = load ptr, ptr %8, align 8
  call fastcc void @smpp_handle_time(ptr noundef %0, ptr noundef %1, ptr %.val41, i32 noundef %60, i32 noundef %61, ptr noundef nonnull %5)
  %.pre43 = load i32, ptr %5, align 4
  br label %66

62:                                               ; preds = %56
  %63 = load i32, ptr @hf_smpp_validity_period_r, align 4
  %64 = add i32 %57, 1
  %65 = call ptr (ptr, i32, ptr, i32, i32, ptr, ptr, ...) @proto_tree_add_time_format_value(ptr noundef %0, i32 noundef %63, ptr noundef %1, i32 noundef %57, i32 noundef 1, ptr noundef nonnull %6, ptr noundef nonnull @.str.969)
  br label %66

66:                                               ; preds = %62, %59
  %67 = phi i32 [ %64, %62 ], [ %.pre43, %59 ]
  %68 = load i32, ptr @hf_smpp_replace_if_present_flag, align 4
  %69 = call ptr @proto_tree_add_item(ptr noundef %0, i32 noundef %68, ptr noundef %1, i32 noundef %67, i32 noundef 1, i32 noundef 0)
  %70 = add i32 %67, 1
  store i32 %70, ptr %5, align 4
  %71 = getelementptr inbounds nuw i8, ptr %.0.i, i64 4
  call void @smpp_handle_dcs(ptr noundef %0, ptr noundef %1, ptr noundef nonnull %5, ptr noundef nonnull %71)
  %72 = load i32, ptr @hf_smpp_sm_default_msg_id, align 4
  %73 = load i32, ptr %5, align 4
  %74 = call ptr @proto_tree_add_item(ptr noundef %0, i32 noundef %72, ptr noundef %1, i32 noundef %73, i32 noundef 1, i32 noundef 0)
  %75 = add i32 %73, 1
  store i32 %75, ptr %5, align 4
  call fastcc void @smpp_handle_tlv(ptr noundef %0, ptr noundef %1, ptr noundef %2, ptr noundef nonnull %5, ptr noundef nonnull %7)
  %76 = load ptr, ptr %7, align 8
  %.not40 = icmp eq ptr %76, null
  br i1 %.not40, label %78, label %77

77:                                               ; preds = %66
  call fastcc void @smpp_handle_msg(ptr noundef %0, ptr noundef %76, ptr noundef %2, ptr noundef %32, ptr noundef nonnull @.str.972)
  br label %78

78:                                               ; preds = %77, %66
  call void @llvm.lifetime.end.p0(i64 8, ptr nonnull %7) #10
  call void @llvm.lifetime.end.p0(i64 16, ptr nonnull %6) #10
  ret void
}